; Function Attrs: nounwind uwtable
define dso_local range(i32 0, 2) i32 @lua_setfenv(ptr noundef captures(none) %0, i32 noundef %1) local_unnamed_addr #1 {
  %3 = icmp sgt i32 %1, 0
  br i1 %3, label %4, label %18

4:                                                ; preds = %2
  %5 = getelementptr inbounds nuw i8, ptr %0, i64 32
  %6 = load ptr, ptr %5, align 8, !tbaa !15
  %7 = zext nneg i32 %1 to i64
  %8 = getelementptr %union.TValue, ptr %6, i64 %7
  %9 = getelementptr i8, ptr %8, i64 -8
  %10 = getelementptr inbounds nuw i8, ptr %0, i64 40
  %11 = load ptr, ptr %10, align 8, !tbaa !14
  %12 = icmp ult ptr %9, %11
  br i1 %12, label %index2adr.exit, label %13

13:                                               ; preds = %4
  %14 = getelementptr inbounds nuw i8, ptr %0, i64 16
  %15 = load i64, ptr %14, align 8, !tbaa !21
  %16 = inttoptr i64 %15 to ptr
  %17 = getelementptr inbounds nuw i8, ptr %16, i64 248
  br label %index2adr.exit

18:                                               ; preds = %2
  %19 = icmp sgt i32 %1, -10000
  br i1 %19, label %20, label %25

20:                                               ; preds = %18
  %21 = getelementptr inbounds nuw i8, ptr %0, i64 40
  %22 = load ptr, ptr %21, align 8, !tbaa !14
  %23 = sext i32 %1 to i64
  %24 = getelementptr inbounds %union.TValue, ptr %22, i64 %23
  br label %index2adr.exit

25:                                               ; preds = %18
  switch i32 %1, label %39 [
    i32 -10002, label %26
    i32 -10000, label %34
  ]

26:                                               ; preds = %25
  %27 = getelementptr inbounds nuw i8, ptr %0, i64 16
  %28 = load i64, ptr %27, align 8, !tbaa !21
  %29 = inttoptr i64 %28 to ptr
  %30 = getelementptr inbounds nuw i8, ptr %29, i64 232
  %31 = getelementptr inbounds nuw i8, ptr %0, i64 72
  %32 = load i64, ptr %31, align 8, !tbaa !24
  %33 = or i64 %32, -1688849860263936
  store i64 %33, ptr %30, align 8, !tbaa !17
  br label %index2adr.exit

34:                                               ; preds = %25
  %35 = getelementptr inbounds nuw i8, ptr %0, i64 16
  %36 = load i64, ptr %35, align 8, !tbaa !21
  %37 = inttoptr i64 %36 to ptr
  %38 = getelementptr inbounds nuw i8, ptr %37, i64 272
  br label %index2adr.exit

39:                                               ; preds = %25
  %40 = getelementptr inbounds nuw i8, ptr %0, i64 32
  %41 = load ptr, ptr %40, align 8, !tbaa !15
  %42 = getelementptr inbounds i8, ptr %41, i64 -16
  %43 = load i64, ptr %42, align 8, !tbaa !17
  %44 = and i64 %43, 140737488355327
  %45 = inttoptr i64 %44 to ptr
  %46 = icmp eq i32 %1, -10001
  br i1 %46, label %47, label %55

47:                                               ; preds = %39
  %48 = getelementptr inbounds nuw i8, ptr %0, i64 16
  %49 = load i64, ptr %48, align 8, !tbaa !21
  %50 = inttoptr i64 %49 to ptr
  %51 = getelementptr inbounds nuw i8, ptr %50, i64 232
  %52 = getelementptr inbounds nuw i8, ptr %45, i64 16
  %53 = load i64, ptr %52, align 8, !tbaa !17
  %54 = or i64 %53, -1688849860263936
  store i64 %54, ptr %51, align 8, !tbaa !17
  br label %index2adr.exit

55:                                               ; preds = %39
  %56 = sub nuw nsw i32 -10002, %1
  %57 = getelementptr inbounds nuw i8, ptr %45, i64 11
  %58 = load i8, ptr %57, align 1, !tbaa !17
  %59 = zext i8 %58 to i32
  %.not.i = icmp samesign ugt i32 %56, %59
  br i1 %.not.i, label %65, label %60

60:                                               ; preds = %55
  %61 = getelementptr inbounds nuw i8, ptr %45, i64 48
  %62 = sub nsw i32 -10003, %1
  %63 = sext i32 %62 to i64
  %64 = getelementptr inbounds [1 x %union.TValue], ptr %61, i64 0, i64 %63
  br label %index2adr.exit

65:                                               ; preds = %55
  %66 = getelementptr inbounds nuw i8, ptr %0, i64 16
  %67 = load i64, ptr %66, align 8, !tbaa !21
  %68 = inttoptr i64 %67 to ptr
  %69 = getelementptr inbounds nuw i8, ptr %68, i64 248
  br label %index2adr.exit

index2adr.exit:                                   ; preds = %4, %13, %20, %26, %34, %47, %60, %65
  %.0.i = phi ptr [ %24, %20 ], [ %30, %26 ], [ %38, %34 ], [ %17, %13 ], [ %9, %4 ], [ %51, %47 ], [ %64, %60 ], [ %69, %65 ]
  %70 = getelementptr inbounds nuw i8, ptr %0, i64 40
  %71 = load ptr, ptr %70, align 8, !tbaa !14
  %72 = getelementptr inbounds i8, ptr %71, i64 -8
  %73 = load i64, ptr %72, align 8, !tbaa !17
  %74 = and i64 %73, 140737488355327
  %75 = inttoptr i64 %74 to ptr
  %76 = load i64, ptr %.0.i, align 8, !tbaa !17
  %77 = ashr i64 %76, 47
  switch i64 %77, label %100 [
    i64 -9, label %79
    i64 -13, label %79
    i64 -7, label %78
  ]

78:                                               ; preds = %index2adr.exit
  br label %79

79:                                               ; preds = %index2adr.exit, %index2adr.exit, %78
  %.sink22 = phi i64 [ 72, %78 ], [ 16, %index2adr.exit ], [ 16, %index2adr.exit ]
  %80 = and i64 %76, 140737488355327
  %81 = inttoptr i64 %80 to ptr
  %82 = getelementptr inbounds nuw i8, ptr %81, i64 %.sink22
  store i64 %74, ptr %82, align 8, !tbaa !17
  %83 = getelementptr inbounds nuw i8, ptr %75, i64 8
  %84 = load i8, ptr %83, align 8, !tbaa !17
  %85 = and i8 %84, 3
  %.not = icmp eq i8 %85, 0
  br i1 %.not, label %97, label %86

86:                                               ; preds = %79
  %87 = load i64, ptr %.0.i, align 8, !tbaa !17
  %88 = and i64 %87, 140737488355327
  %89 = inttoptr i64 %88 to ptr
  %90 = getelementptr inbounds nuw i8, ptr %89, i64 8
  %91 = load i8, ptr %90, align 8, !tbaa !17
  %92 = and i8 %91, 4
  %.not20 = icmp eq i8 %92, 0
  br i1 %.not20, label %97, label %93

93:                                               ; preds = %86
  %94 = getelementptr inbounds nuw i8, ptr %0, i64 16
  %95 = load i64, ptr %94, align 8, !tbaa !21
  %96 = inttoptr i64 %95 to ptr
  tail call void @lj_gc_barrierf(ptr noundef %96, ptr noundef nonnull %89, ptr noundef nonnull %75) #13
  br label %97

97:                                               ; preds = %93, %86, %79
  %98 = load ptr, ptr %70, align 8, !tbaa !14
  %99 = getelementptr inbounds i8, ptr %98, i64 -8
  br label %100

100:                                              ; preds = %index2adr.exit, %97
  %storemerge = phi ptr [ %99, %97 ], [ %72, %index2adr.exit ]
  %.0 = phi i32 [ 1, %97 ], [ 0, %index2adr.exit ]
  store ptr %storemerge, ptr %70, align 8, !tbaa !14
  ret i32 %.0
}